; Function Attrs: nounwind uwtable
define noalias nonnull ptr @l_Std_Time_PlainTime_addMilliseconds(ptr noundef readonly captures(none) %0, ptr noundef %1) local_unnamed_addr #0 {
  %3 = tail call ptr @l_Std_Time_PlainTime_toMilliseconds(ptr noundef %0)
  %4 = ptrtoint ptr %3 to i64
  %5 = and i64 %4, 1
  %.not.i16 = icmp eq i64 %5, 0
  br i1 %.not.i16, label %25, label %6, !prof !8

6:                                                ; preds = %2
  %7 = ptrtoint ptr %1 to i64
  %8 = and i64 %7, 1
  %.not7.i = icmp eq i64 %8, 0
  br i1 %.not7.i, label %lean_int_add.exit.thread23, label %10, !prof !8

lean_int_add.exit.thread23:                       ; preds = %6
  %9 = tail call ptr @lean_int_big_add(ptr noundef %3, ptr noundef %1) #4
  br label %lean_dec.exit11

10:                                               ; preds = %6
  %11 = shl i64 %4, 31
  %12 = ashr i64 %11, 32
  %13 = shl i64 %7, 31
  %14 = ashr i64 %13, 32
  %15 = add nsw i64 %12, %14
  %16 = add nsw i64 %15, 2147483648
  %17 = icmp ult i64 %16, 4294967296
  br i1 %17, label %18, label %23, !prof !14

18:                                               ; preds = %10
  %19 = shl nsw i64 %15, 1
  %20 = and i64 %19, 8589934590
  %21 = or disjoint i64 %20, 1
  %22 = inttoptr i64 %21 to ptr
  br label %lean_dec.exit11

23:                                               ; preds = %10
  %24 = tail call ptr @lean_big_int64_to_int(i64 noundef range(i64 -4611686016279904256, -9223372036854775808) %15) #4
  br label %lean_dec.exit11

25:                                               ; preds = %2
  %26 = tail call ptr @lean_int_big_add(ptr noundef %3, ptr noundef %1) #4
  %27 = load i32, ptr %3, align 4, !tbaa !9
  %28 = icmp sgt i32 %27, 1
  br i1 %28, label %29, label %31, !prof !14

29:                                               ; preds = %25
  %30 = add nsw i32 %27, -1
  store i32 %30, ptr %3, align 4, !tbaa !9
  br label %lean_dec.exit11

31:                                               ; preds = %25
  %.not.i = icmp eq i32 %27, 0
  br i1 %.not.i, label %lean_dec.exit11, label %32

32:                                               ; preds = %31
  tail call void @lean_dec_ref_cold(ptr noundef nonnull %3) #4
  br label %lean_dec.exit11

lean_dec.exit11:                                  ; preds = %23, %18, %32, %31, %29, %lean_int_add.exit.thread23
  %.0.i22 = phi ptr [ %9, %lean_int_add.exit.thread23 ], [ %26, %29 ], [ %26, %31 ], [ %26, %32 ], [ %24, %23 ], [ %22, %18 ]
  %33 = load ptr, ptr @l_Std_Time_PlainTime_toMilliseconds___closed__4, align 8, !tbaa !4
  %34 = ptrtoint ptr %.0.i22 to i64
  %35 = and i64 %34, 1
  %.not.i17 = icmp eq i64 %35, 0
  br i1 %.not.i17, label %55, label %36, !prof !8

36:                                               ; preds = %lean_dec.exit11
  %37 = ptrtoint ptr %33 to i64
  %38 = and i64 %37, 1
  %.not7.i18 = icmp eq i64 %38, 0
  br i1 %.not7.i18, label %lean_int_mul.exit.thread26, label %40, !prof !8

lean_int_mul.exit.thread26:                       ; preds = %36
  %39 = tail call ptr @lean_int_big_mul(ptr noundef %.0.i22, ptr noundef %33) #4
  br label %lean_dec.exit10

40:                                               ; preds = %36
  %41 = shl i64 %34, 31
  %42 = ashr i64 %41, 32
  %43 = shl i64 %37, 31
  %44 = ashr i64 %43, 32
  %45 = mul nsw i64 %44, %42
  %46 = add nsw i64 %45, 2147483648
  %47 = icmp ult i64 %46, 4294967296
  br i1 %47, label %48, label %53, !prof !14

48:                                               ; preds = %40
  %49 = shl nsw i64 %45, 1
  %50 = and i64 %49, 8589934590
  %51 = or disjoint i64 %50, 1
  %52 = inttoptr i64 %51 to ptr
  br label %lean_dec.exit10

53:                                               ; preds = %40
  %54 = tail call ptr @lean_big_int64_to_int(i64 noundef range(i64 -4611686016279904256, -9223372036854775808) %45) #4
  br label %lean_dec.exit10

55:                                               ; preds = %lean_dec.exit11
  %56 = tail call ptr @lean_int_big_mul(ptr noundef %.0.i22, ptr noundef %33) #4
  %57 = load i32, ptr %.0.i22, align 4, !tbaa !9
  %58 = icmp sgt i32 %57, 1
  br i1 %58, label %59, label %61, !prof !14

59:                                               ; preds = %55
  %60 = add nsw i32 %57, -1
  store i32 %60, ptr %.0.i22, align 4, !tbaa !9
  br label %lean_dec.exit10

61:                                               ; preds = %55
  %.not.i12 = icmp eq i32 %57, 0
  br i1 %.not.i12, label %lean_dec.exit10, label %62

62:                                               ; preds = %61
  tail call void @lean_dec_ref_cold(ptr noundef nonnull %.0.i22) #4
  br label %lean_dec.exit10

lean_dec.exit10:                                  ; preds = %53, %48, %62, %61, %59, %lean_int_mul.exit.thread26
  %.0.i1925 = phi ptr [ %39, %lean_int_mul.exit.thread26 ], [ %56, %59 ], [ %56, %61 ], [ %56, %62 ], [ %54, %53 ], [ %52, %48 ]
  %63 = tail call ptr @l_Std_Time_PlainTime_ofNanoseconds(ptr noundef %.0.i1925)
  %64 = ptrtoint ptr %.0.i1925 to i64
  %65 = and i64 %64, 1
  %.not = icmp eq i64 %65, 0
  br i1 %.not, label %66, label %lean_dec.exit

66:                                               ; preds = %lean_dec.exit10
  %67 = load i32, ptr %.0.i1925, align 4, !tbaa !9
  %68 = icmp sgt i32 %67, 1
  br i1 %68, label %69, label %71, !prof !14

69:                                               ; preds = %66
  %70 = add nsw i32 %67, -1
  store i32 %70, ptr %.0.i1925, align 4, !tbaa !9
  br label %lean_dec.exit

71:                                               ; preds = %66
  %.not.i14 = icmp eq i32 %67, 0
  br i1 %.not.i14, label %lean_dec.exit, label %72

72:                                               ; preds = %71
  tail call void @lean_dec_ref_cold(ptr noundef nonnull %.0.i1925) #4
  br label %lean_dec.exit

lean_dec.exit:                                    ; preds = %72, %71, %69, %lean_dec.exit10
  ret ptr %63
}